target datalayout = "e-m:e-p270:32:32-p271:32:32-p272:64:64-i64:64-i128:128-f80:128-n8:16:32:64-S128"
target triple = "x86_64-pc-linux-gnu"

%struct.nghttp2_session = type { %struct.nghttp2_map, %struct.nghttp2_outbound_queue, %struct.nghttp2_outbound_queue, %struct.nghttp2_outbound_queue, [8 x %struct.anon], %struct.nghttp2_active_outbound_item, %struct.nghttp2_inbound_frame, %struct.nghttp2_hd_deflater, %struct.nghttp2_hd_inflater, %struct.nghttp2_session_callbacks, %struct.nghttp2_mem, ptr, ptr, %struct.nghttp2_ratelim, i64, i64, i64, i64, i64, i64, i64, i64, i64, i64, i64, i64, i64, i64, i32, i32, i32, i32, i32, i32, i32, i32, i32, i32, i32, i32, i8, %struct.nghttp2_settings_storage, %struct.nghttp2_settings_storage, i32, i32, i32, i8, i8, i8, i8, i8, i8, [32 x i8] }
%struct.nghttp2_map = type { ptr, ptr, i64, i64 }
%struct.nghttp2_outbound_queue = type { ptr, ptr, i64 }
%struct.anon = type { %struct.nghttp2_pq }
%struct.nghttp2_pq = type { ptr, ptr, i64, i64, ptr }
%struct.nghttp2_active_outbound_item = type { ptr, %struct.nghttp2_bufs, i32 }
%struct.nghttp2_bufs = type { ptr, ptr, ptr, i64, i64, i64, i64, i64 }
%struct.nghttp2_inbound_frame = type { %union.nghttp2_frame, %union.nghttp2_ext_frame_payload, ptr, %struct.nghttp2_buf, %struct.nghttp2_buf, ptr, i64, i64, i64, i64, i32, [32 x i8] }
%union.nghttp2_frame = type { %struct.nghttp2_headers }
%struct.nghttp2_headers = type { %struct.nghttp2_frame_hd, i64, %struct.nghttp2_priority_spec, ptr, i64, i32 }
%struct.nghttp2_frame_hd = type { i64, i32, i8, i8, i8 }
%struct.nghttp2_priority_spec = type { i32, i32, i8 }
%union.nghttp2_ext_frame_payload = type { %struct.nghttp2_ext_altsvc }
%struct.nghttp2_ext_altsvc = type { ptr, i64, ptr, i64 }
%struct.nghttp2_buf = type { ptr, ptr, ptr, ptr, ptr }
%struct.nghttp2_hd_deflater = type { %struct.nghttp2_hd_context, %struct.nghttp2_hd_map, i64, i64, i8 }
%struct.nghttp2_hd_context = type { %struct.nghttp2_hd_ringbuf, ptr, i64, i64, i32, i8 }
%struct.nghttp2_hd_ringbuf = type { ptr, i64, i64, i64 }
%struct.nghttp2_hd_map = type { [128 x ptr] }
%struct.nghttp2_hd_inflater = type { %struct.nghttp2_hd_context, %struct.nghttp2_hd_huff_decode_context, %struct.nghttp2_buf, %struct.nghttp2_buf, ptr, ptr, ptr, ptr, i64, i64, i64, i64, i64, i32, i32, i8, i8, i8 }
%struct.nghttp2_hd_huff_decode_context = type { i16 }
%struct.nghttp2_session_callbacks = type { ptr, ptr, ptr, ptr, ptr, ptr, ptr, ptr, ptr, ptr, ptr, ptr, ptr, ptr, ptr, ptr, ptr, ptr, ptr, ptr, ptr, ptr, ptr, ptr, ptr, ptr, ptr, ptr }
%struct.nghttp2_mem = type { ptr, ptr, ptr, ptr, ptr }
%struct.nghttp2_ratelim = type { i64, i64, i64, i64 }
%struct.nghttp2_settings_storage = type { i32, i32, i32, i32, i32, i32, i32, i32 }
%struct.nghttp2_outbound_item = type { %union.nghttp2_frame, %union.nghttp2_ext_frame_payload, %union.nghttp2_aux_data, i64, ptr, i8 }
%union.nghttp2_aux_data = type { %struct.nghttp2_headers_aux_data }
%struct.nghttp2_headers_aux_data = type { %struct.nghttp2_data_provider_wrap, ptr, i32, i8 }
%struct.nghttp2_data_provider_wrap = type { i32, %union.anon }
%union.anon = type { %struct.anon.0 }
%struct.anon.0 = type { %union.nghttp2_data_source, ptr }
%union.nghttp2_data_source = type { ptr }

; Function Attrs: nounwind uwtable
define hidden i32 @nghttp2_session_add_window_update(ptr noundef %0, i8 noundef zeroext %1, i32 noundef %2, i32 noundef %3) #0 {
  %5 = alloca i32, align 4
  %6 = alloca ptr, align 8
  %7 = alloca i8, align 1
  %8 = alloca i32, align 4
  %9 = alloca i32, align 4
  %10 = alloca i32, align 4
  %11 = alloca ptr, align 8
  %12 = alloca ptr, align 8
  %13 = alloca ptr, align 8
  %14 = alloca i32, align 4
  store ptr %0, ptr %6, align 8, !tbaa !7
  store i8 %1, ptr %7, align 1, !tbaa !117
  store i32 %2, ptr %8, align 4, !tbaa !3
  store i32 %3, ptr %9, align 4, !tbaa !3
  call void @llvm.lifetime.start.p0(i64 4, ptr %10) #10
  call void @llvm.lifetime.start.p0(i64 8, ptr %11) #10
  call void @llvm.lifetime.start.p0(i64 8, ptr %12) #10
  call void @llvm.lifetime.start.p0(i64 8, ptr %13) #10
  %15 = load ptr, ptr %6, align 8, !tbaa !7
  %16 = getelementptr inbounds nuw %struct.nghttp2_session, ptr %15, i32 0, i32 10
  store ptr %16, ptr %13, align 8, !tbaa !53
  %17 = load ptr, ptr %13, align 8, !tbaa !53
  %18 = call ptr @nghttp2_mem_malloc(ptr noundef %17, i64 noundef 160)
  store ptr %18, ptr %11, align 8, !tbaa !108
  %19 = load ptr, ptr %11, align 8, !tbaa !108
  %20 = icmp eq ptr %19, null
  br i1 %20, label %21, label %22

21:                                               ; preds = %4
  store i32 -901, ptr %5, align 4
  store i32 1, ptr %14, align 4
  br label %41

22:                                               ; preds = %4
  %23 = load ptr, ptr %11, align 8, !tbaa !108
  call void @nghttp2_outbound_item_init(ptr noundef %23)
  %24 = load ptr, ptr %11, align 8, !tbaa !108
  %25 = getelementptr inbounds nuw %struct.nghttp2_outbound_item, ptr %24, i32 0, i32 0
  store ptr %25, ptr %12, align 8, !tbaa !53
  %26 = load ptr, ptr %12, align 8, !tbaa !53
  %27 = load i8, ptr %7, align 1, !tbaa !117
  %28 = load i32, ptr %8, align 4, !tbaa !3
  %29 = load i32, ptr %9, align 4, !tbaa !3
  call void @nghttp2_frame_window_update_init(ptr noundef %26, i8 noundef zeroext %27, i32 noundef %28, i32 noundef %29)
  %30 = load ptr, ptr %6, align 8, !tbaa !7
  %31 = load ptr, ptr %11, align 8, !tbaa !108
  %32 = call i32 @nghttp2_session_add_item(ptr noundef %30, ptr noundef %31)
  store i32 %32, ptr %10, align 4, !tbaa !3
  %33 = load i32, ptr %10, align 4, !tbaa !3
  %34 = icmp ne i32 %33, 0
  br i1 %34, label %35, label %40

35:                                               ; preds = %22
  %36 = load ptr, ptr %12, align 8, !tbaa !53
  call void @nghttp2_frame_window_update_free(ptr noundef %36)
  %37 = load ptr, ptr %13, align 8, !tbaa !53
  %38 = load ptr, ptr %11, align 8, !tbaa !108
  call void @nghttp2_mem_free(ptr noundef %37, ptr noundef %38)
  %39 = load i32, ptr %10, align 4, !tbaa !3
  store i32 %39, ptr %5, align 4
  store i32 1, ptr %14, align 4
  br label %41

40:                                               ; preds = %22
  store i32 0, ptr %5, align 4
  store i32 1, ptr %14, align 4
  br label %41

41:                                               ; preds = %40, %35, %21
  call void @llvm.lifetime.end.p0(i64 8, ptr %13) #10
  call void @llvm.lifetime.end.p0(i64 8, ptr %12) #10
  call void @llvm.lifetime.end.p0(i64 8, ptr %11) #10
  call void @llvm.lifetime.end.p0(i64 4, ptr %10) #10
  %42 = load i32, ptr %5, align 4
  ret i32 %42
}